target datalayout = "e-m:e-p270:32:32-p271:32:32-p272:64:64-i64:64-i128:128-f80:128-n8:16:32:64-S128"
target triple = "x86_64-pc-linux-gnu"

%"struct.Luau::Lexeme" = type { i32, %"struct.Luau::Location", i32, %union.anon }
%"struct.Luau::Location" = type { %"struct.Luau::Position", %"struct.Luau::Position" }
%"struct.Luau::Position" = type { i32, i32 }
%union.anon = type { ptr }
%"class.Luau::Lexer" = type { ptr, i64, i32, i32, i32, %"struct.Luau::Lexeme", %"struct.Luau::Location", ptr, i8, i8, %"class.std::vector" }
%"class.std::vector" = type { %"struct.std::_Vector_base" }
%"struct.std::_Vector_base" = type { %"struct.std::_Vector_base<Luau::Lexer::BraceType, std::allocator<Luau::Lexer::BraceType>>::_Vector_impl" }
%"struct.std::_Vector_base<Luau::Lexer::BraceType, std::allocator<Luau::Lexer::BraceType>>::_Vector_impl" = type { %"struct.std::_Vector_base<Luau::Lexer::BraceType, std::allocator<Luau::Lexer::BraceType>>::_Vector_impl_data" }
%"struct.std::_Vector_base<Luau::Lexer::BraceType, std::allocator<Luau::Lexer::BraceType>>::_Vector_impl_data" = type { ptr, ptr, ptr }

@_ZN4Luau6LexemeC1ERKNS_8LocationENS0_4TypeE = dso_local unnamed_addr alias void (ptr, ptr, i32), ptr @_ZN4Luau6LexemeC2ERKNS_8LocationENS0_4TypeE
@_ZN4Luau6LexemeC1ERKNS_8LocationENS0_4TypeEPKcm = dso_local unnamed_addr alias void (ptr, ptr, i32, ptr, i64), ptr @_ZN4Luau6LexemeC2ERKNS_8LocationENS0_4TypeEPKcm

; Function Attrs: inlinehint mustprogress nounwind uwtable
define linkonce_odr dso_local noundef zeroext i1 @_ZN4Luau9isNewlineEc(i8 noundef signext %0) #7 comdat {
  %2 = alloca i8, align 1
  store i8 %0, ptr %2, align 1, !tbaa !34
  %3 = load i8, ptr %2, align 1, !tbaa !34
  %4 = sext i8 %3 to i32
  %5 = icmp eq i32 %4, 10
  ret i1 %5
}

; Function Attrs: mustprogress nounwind uwtable
define linkonce_odr dso_local void @_ZN4Luau8PositionC2Ejj(ptr noundef nonnull align 4 dereferenceable(8) %0, i32 noundef %1, i32 noundef %2) unnamed_addr #2 comdat align 2 {
  %4 = alloca ptr, align 8
  %5 = alloca i32, align 4
  %6 = alloca i32, align 4
  store ptr %0, ptr %4, align 8, !tbaa !87
  store i32 %1, ptr %5, align 4, !tbaa !4
  store i32 %2, ptr %6, align 4, !tbaa !4
  %7 = load ptr, ptr %4, align 8
  %8 = getelementptr inbounds nuw %"struct.Luau::Position", ptr %7, i32 0, i32 0
  %9 = load i32, ptr %5, align 4, !tbaa !4
  store i32 %9, ptr %8, align 4, !tbaa !81
  %10 = getelementptr inbounds nuw %"struct.Luau::Position", ptr %7, i32 0, i32 1
  %11 = load i32, ptr %6, align 4, !tbaa !4
  store i32 %11, ptr %10, align 4, !tbaa !83
  ret void
}

; Function Attrs: alwaysinline mustprogress nounwind uwtable
define linkonce_odr dso_local void @_ZN4Luau5Lexer10consumeAnyEv(ptr noundef nonnull align 8 dereferenceable(120) %0) #8 comdat align 2 {
  %2 = alloca ptr, align 8
  store ptr %0, ptr %2, align 8, !tbaa !71
  %3 = load ptr, ptr %2, align 8
  %4 = getelementptr inbounds nuw %"class.Luau::Lexer", ptr %3, i32 0, i32 0
  %5 = load ptr, ptr %4, align 8, !tbaa !73
  %6 = getelementptr inbounds nuw %"class.Luau::Lexer", ptr %3, i32 0, i32 2
  %7 = load i32, ptr %6, align 8, !tbaa !80
  %8 = zext i32 %7 to i64
  %9 = getelementptr inbounds nuw i8, ptr %5, i64 %8
  %10 = load i8, ptr %9, align 1, !tbaa !34
  %11 = call noundef zeroext i1 @_ZN4Luau9isNewlineEc(i8 noundef signext %10)
  br i1 %11, label %12, label %20

12:                                               ; preds = %1
  %13 = getelementptr inbounds nuw %"class.Luau::Lexer", ptr %3, i32 0, i32 3
  %14 = load i32, ptr %13, align 4, !tbaa !82
  %15 = add i32 %14, 1
  store i32 %15, ptr %13, align 4, !tbaa !82
  %16 = getelementptr inbounds nuw %"class.Luau::Lexer", ptr %3, i32 0, i32 2
  %17 = load i32, ptr %16, align 8, !tbaa !80
  %18 = add i32 %17, 1
  %19 = getelementptr inbounds nuw %"class.Luau::Lexer", ptr %3, i32 0, i32 4
  store i32 %18, ptr %19, align 8, !tbaa !84
  br label %20

20:                                               ; preds = %12, %1
  %21 = getelementptr inbounds nuw %"class.Luau::Lexer", ptr %3, i32 0, i32 2
  %22 = load i32, ptr %21, align 8, !tbaa !80
  %23 = add i32 %22, 1
  store i32 %23, ptr %21, align 8, !tbaa !80
  ret void
}

; Function Attrs: mustprogress nounwind uwtable
define linkonce_odr dso_local void @_ZN4Luau8LocationC2ERKNS_8PositionES3_(ptr noundef nonnull align 4 dereferenceable(16) %0, ptr noundef nonnull align 4 dereferenceable(8) %1, ptr noundef nonnull align 4 dereferenceable(8) %2) unnamed_addr #2 comdat align 2 {
  %4 = alloca ptr, align 8
  %5 = alloca ptr, align 8
  %6 = alloca ptr, align 8
  store ptr %0, ptr %4, align 8, !tbaa !24
  store ptr %1, ptr %5, align 8, !tbaa !87
  store ptr %2, ptr %6, align 8, !tbaa !87
  %7 = load ptr, ptr %4, align 8
  %8 = getelementptr inbounds nuw %"struct.Luau::Location", ptr %7, i32 0, i32 0
  %9 = load ptr, ptr %5, align 8, !tbaa !87
  call void @llvm.memcpy.p0.p0.i64(ptr align 4 %8, ptr align 4 %9, i64 8, i1 false), !tbaa.struct !89
  %10 = getelementptr inbounds nuw %"struct.Luau::Location", ptr %7, i32 0, i32 1
  %11 = load ptr, ptr %6, align 8, !tbaa !87
  call void @llvm.memcpy.p0.p0.i64(ptr align 4 %10, ptr align 4 %11, i64 8, i1 false), !tbaa.struct !89
  ret void
}

; Function Attrs: alwaysinline mustprogress uwtable
define linkonce_odr dso_local i64 @_ZNK4Luau5Lexer8positionEv(ptr noundef nonnull align 8 dereferenceable(120) %0) #9 comdat align 2 {
  %2 = alloca %"struct.Luau::Position", align 4
  %3 = alloca ptr, align 8
  store ptr %0, ptr %3, align 8, !tbaa !71
  %4 = load ptr, ptr %3, align 8
  %5 = getelementptr inbounds nuw %"class.Luau::Lexer", ptr %4, i32 0, i32 3
  %6 = load i32, ptr %5, align 4, !tbaa !82
  %7 = getelementptr inbounds nuw %"class.Luau::Lexer", ptr %4, i32 0, i32 2
  %8 = load i32, ptr %7, align 8, !tbaa !80
  %9 = getelementptr inbounds nuw %"class.Luau::Lexer", ptr %4, i32 0, i32 4
  %10 = load i32, ptr %9, align 8, !tbaa !84
  %11 = sub i32 %8, %10
  call void @_ZN4Luau8PositionC2Ejj(ptr noundef nonnull align 4 dereferenceable(8) %2, i32 noundef %6, i32 noundef %11)
  %12 = load i64, ptr %2, align 4
  ret i64 %12
}

; Function Attrs: mustprogress uwtable
define dso_local noundef i32 @_ZN4Luau5Lexer17skipLongSeparatorEv(ptr noundef nonnull align 8 dereferenceable(120) %0) #4 align 2 {
  %2 = alloca ptr, align 8
  %3 = alloca i8, align 1
  %4 = alloca i32, align 4
  store ptr %0, ptr %2, align 8, !tbaa !71
  %5 = load ptr, ptr %2, align 8
  call void @llvm.lifetime.start.p0(i64 1, ptr %3) #18
  %6 = call noundef signext i8 @_ZNK4Luau5Lexer6peekchEv(ptr noundef nonnull align 8 dereferenceable(120) %5)
  store i8 %6, ptr %3, align 1, !tbaa !34
  call void @_ZN4Luau5Lexer7consumeEv(ptr noundef nonnull align 8 dereferenceable(120) %5)
  call void @llvm.lifetime.start.p0(i64 4, ptr %4) #18
  store i32 0, ptr %4, align 4, !tbaa !4
  br label %7

7:                                                ; preds = %11, %1
  %8 = call noundef signext i8 @_ZNK4Luau5Lexer6peekchEv(ptr noundef nonnull align 8 dereferenceable(120) %5)
  %9 = sext i8 %8 to i32
  %10 = icmp eq i32 %9, 61
  br i1 %10, label %11, label %14

11:                                               ; preds = %7
  call void @_ZN4Luau5Lexer7consumeEv(ptr noundef nonnull align 8 dereferenceable(120) %5)
  %12 = load i32, ptr %4, align 4, !tbaa !4
  %13 = add nsw i32 %12, 1
  store i32 %13, ptr %4, align 4, !tbaa !4
  br label %7, !llvm.loop !107

14:                                               ; preds = %7
  %15 = load i8, ptr %3, align 1, !tbaa !34
  %16 = sext i8 %15 to i32
  %17 = call noundef signext i8 @_ZNK4Luau5Lexer6peekchEv(ptr noundef nonnull align 8 dereferenceable(120) %5)
  %18 = sext i8 %17 to i32
  %19 = icmp eq i32 %16, %18
  br i1 %19, label %20, label %22

20:                                               ; preds = %14
  %21 = load i32, ptr %4, align 4, !tbaa !4
  br label %26

22:                                               ; preds = %14
  %23 = load i32, ptr %4, align 4, !tbaa !4
  %24 = sub nsw i32 0, %23
  %25 = sub nsw i32 %24, 1
  br label %26

26:                                               ; preds = %22, %20
  %27 = phi i32 [ %21, %20 ], [ %25, %22 ]
  call void @llvm.lifetime.end.p0(i64 4, ptr %4) #18
  call void @llvm.lifetime.end.p0(i64 1, ptr %3) #18
  ret i32 %27
}

; Function Attrs: alwaysinline mustprogress nounwind uwtable
define linkonce_odr dso_local noundef signext i8 @_ZNK4Luau5Lexer6peekchEv(ptr noundef nonnull align 8 dereferenceable(120) %0) #8 comdat align 2 {
  %2 = alloca ptr, align 8
  store ptr %0, ptr %2, align 8, !tbaa !71
  %3 = load ptr, ptr %2, align 8
  %4 = getelementptr inbounds nuw %"class.Luau::Lexer", ptr %3, i32 0, i32 2
  %5 = load i32, ptr %4, align 8, !tbaa !80
  %6 = zext i32 %5 to i64
  %7 = getelementptr inbounds nuw %"class.Luau::Lexer", ptr %3, i32 0, i32 1
  %8 = load i64, ptr %7, align 8, !tbaa !79
  %9 = icmp ult i64 %6, %8
  br i1 %9, label %10, label %19

10:                                               ; preds = %1
  %11 = getelementptr inbounds nuw %"class.Luau::Lexer", ptr %3, i32 0, i32 0
  %12 = load ptr, ptr %11, align 8, !tbaa !73
  %13 = getelementptr inbounds nuw %"class.Luau::Lexer", ptr %3, i32 0, i32 2
  %14 = load i32, ptr %13, align 8, !tbaa !80
  %15 = zext i32 %14 to i64
  %16 = getelementptr inbounds nuw i8, ptr %12, i64 %15
  %17 = load i8, ptr %16, align 1, !tbaa !34
  %18 = sext i8 %17 to i32
  br label %20

19:                                               ; preds = %1
  br label %20

20:                                               ; preds = %19, %10
  %21 = phi i32 [ %18, %10 ], [ 0, %19 ]
  %22 = trunc i32 %21 to i8
  ret i8 %22
}

; Function Attrs: alwaysinline mustprogress nounwind uwtable
define linkonce_odr dso_local void @_ZN4Luau5Lexer7consumeEv(ptr noundef nonnull align 8 dereferenceable(120) %0) #8 comdat align 2 {
  %2 = alloca ptr, align 8
  store ptr %0, ptr %2, align 8, !tbaa !71
  %3 = load ptr, ptr %2, align 8
  %4 = getelementptr inbounds nuw %"class.Luau::Lexer", ptr %3, i32 0, i32 2
  %5 = load i32, ptr %4, align 8, !tbaa !80
  %6 = add i32 %5, 1
  store i32 %6, ptr %4, align 8, !tbaa !80
  ret void
}

; Function Attrs: mustprogress uwtable
define dso_local void @_ZN4Luau5Lexer14readLongStringERKNS_8PositionEiNS_6Lexeme4TypeES5_(ptr dead_on_unwind noalias writable sret(%"struct.Luau::Lexeme") align 8 %0, ptr noundef nonnull align 8 dereferenceable(120) %1, ptr noundef nonnull align 4 dereferenceable(8) %2, i32 noundef %3, i32 noundef %4, i32 noundef %5) #4 align 2 {
  %7 = alloca ptr, align 8
  %8 = alloca ptr, align 8
  %9 = alloca i32, align 4
  %10 = alloca i32, align 4
  %11 = alloca i32, align 4
  %12 = alloca i32, align 4
  %13 = alloca i32, align 4
  %14 = alloca %"struct.Luau::Location", align 4
  %15 = alloca %"struct.Luau::Position", align 4
  %16 = alloca i32, align 4
  %17 = alloca %"struct.Luau::Location", align 4
  %18 = alloca %"struct.Luau::Position", align 4
  store ptr %1, ptr %7, align 8, !tbaa !71
  store ptr %2, ptr %8, align 8, !tbaa !87
  store i32 %3, ptr %9, align 4, !tbaa !4
  store i32 %4, ptr %10, align 4, !tbaa !26
  store i32 %5, ptr %11, align 4, !tbaa !26
  %19 = load ptr, ptr %7, align 8
  call void @_ZN4Luau5Lexer7consumeEv(ptr noundef nonnull align 8 dereferenceable(120) %19)
  call void @llvm.lifetime.start.p0(i64 4, ptr %12) #18
  %20 = getelementptr inbounds nuw %"class.Luau::Lexer", ptr %19, i32 0, i32 2
  %21 = load i32, ptr %20, align 8, !tbaa !80
  store i32 %21, ptr %12, align 4, !tbaa !4
  br label %22

22:                                               ; preds = %53, %6
  %23 = call noundef signext i8 @_ZNK4Luau5Lexer6peekchEv(ptr noundef nonnull align 8 dereferenceable(120) %19)
  %24 = icmp ne i8 %23, 0
  br i1 %24, label %25, label %54

25:                                               ; preds = %22
  %26 = call noundef signext i8 @_ZNK4Luau5Lexer6peekchEv(ptr noundef nonnull align 8 dereferenceable(120) %19)
  %27 = sext i8 %26 to i32
  %28 = icmp eq i32 %27, 93
  br i1 %28, label %29, label %52

29:                                               ; preds = %25
  %30 = call noundef i32 @_ZN4Luau5Lexer17skipLongSeparatorEv(ptr noundef nonnull align 8 dereferenceable(120) %19)
  %31 = load i32, ptr %9, align 4, !tbaa !4
  %32 = icmp eq i32 %30, %31
  br i1 %32, label %33, label %51

33:                                               ; preds = %29
  call void @_ZN4Luau5Lexer7consumeEv(ptr noundef nonnull align 8 dereferenceable(120) %19)
  call void @llvm.lifetime.start.p0(i64 4, ptr %13) #18
  %34 = getelementptr inbounds nuw %"class.Luau::Lexer", ptr %19, i32 0, i32 2
  %35 = load i32, ptr %34, align 8, !tbaa !80
  %36 = load i32, ptr %9, align 4, !tbaa !4
  %37 = sub i32 %35, %36
  %38 = sub i32 %37, 2
  store i32 %38, ptr %13, align 4, !tbaa !4
  call void @llvm.lifetime.start.p0(i64 16, ptr %14) #18
  %39 = load ptr, ptr %8, align 8, !tbaa !87
  call void @llvm.lifetime.start.p0(i64 8, ptr %15) #18
  %40 = call i64 @_ZNK4Luau5Lexer8positionEv(ptr noundef nonnull align 8 dereferenceable(120) %19)
  store i64 %40, ptr %15, align 4
  call void @_ZN4Luau8LocationC2ERKNS_8PositionES3_(ptr noundef nonnull align 4 dereferenceable(16) %14, ptr noundef nonnull align 4 dereferenceable(8) %39, ptr noundef nonnull align 4 dereferenceable(8) %15)
  %41 = load i32, ptr %10, align 4, !tbaa !26
  %42 = getelementptr inbounds nuw %"class.Luau::Lexer", ptr %19, i32 0, i32 0
  %43 = load ptr, ptr %42, align 8, !tbaa !73
  %44 = load i32, ptr %12, align 4, !tbaa !4
  %45 = zext i32 %44 to i64
  %46 = getelementptr inbounds nuw i8, ptr %43, i64 %45
  %47 = load i32, ptr %13, align 4, !tbaa !4
  %48 = load i32, ptr %12, align 4, !tbaa !4
  %49 = sub i32 %47, %48
  %50 = zext i32 %49 to i64
  call void @_ZN4Luau6LexemeC1ERKNS_8LocationENS0_4TypeEPKcm(ptr noundef nonnull align 8 dereferenceable(32) %0, ptr noundef nonnull align 4 dereferenceable(16) %14, i32 noundef %41, ptr noundef %46, i64 noundef %50)
  call void @llvm.lifetime.end.p0(i64 8, ptr %15) #18
  call void @llvm.lifetime.end.p0(i64 16, ptr %14) #18
  store i32 1, ptr %16, align 4
  call void @llvm.lifetime.end.p0(i64 4, ptr %13) #18
  br label %58

51:                                               ; preds = %29
  br label %53

52:                                               ; preds = %25
  call void @_ZN4Luau5Lexer10consumeAnyEv(ptr noundef nonnull align 8 dereferenceable(120) %19)
  br label %53

53:                                               ; preds = %52, %51
  br label %22, !llvm.loop !108

54:                                               ; preds = %22
  call void @llvm.lifetime.start.p0(i64 16, ptr %17) #18
  %55 = load ptr, ptr %8, align 8, !tbaa !87
  call void @llvm.lifetime.start.p0(i64 8, ptr %18) #18
  %56 = call i64 @_ZNK4Luau5Lexer8positionEv(ptr noundef nonnull align 8 dereferenceable(120) %19)
  store i64 %56, ptr %18, align 4
  call void @_ZN4Luau8LocationC2ERKNS_8PositionES3_(ptr noundef nonnull align 4 dereferenceable(16) %17, ptr noundef nonnull align 4 dereferenceable(8) %55, ptr noundef nonnull align 4 dereferenceable(8) %18)
  %57 = load i32, ptr %11, align 4, !tbaa !26
  call void @_ZN4Luau6LexemeC1ERKNS_8LocationENS0_4TypeE(ptr noundef nonnull align 8 dereferenceable(32) %0, ptr noundef nonnull align 4 dereferenceable(16) %17, i32 noundef %57)
  call void @llvm.lifetime.end.p0(i64 8, ptr %18) #18
  call void @llvm.lifetime.end.p0(i64 16, ptr %17) #18
  store i32 1, ptr %16, align 4
  br label %58

58:                                               ; preds = %54, %33
  call void @llvm.lifetime.end.p0(i64 4, ptr %12) #18
  ret void
}