; Function Attrs: mustprogress nofree norecurse nosync nounwind memory(read, argmem: readwrite, inaccessiblemem: none) uwtable
define dso_local void @_ZN4Luau5Lexer14readLongStringERKNS_8PositionEiNS_6Lexeme4TypeES5_(ptr dead_on_unwind noalias writable writeonly sret(%"struct.Luau::Lexeme") align 8 captures(none) %0, ptr noundef nonnull align 8 captures(none) dereferenceable(120) %1, ptr noundef nonnull readonly align 4 captures(none) dereferenceable(8) %2, i32 noundef %3, i32 noundef %4, i32 noundef %5) local_unnamed_addr #13 align 2 {
  %7 = getelementptr inbounds nuw i8, ptr %1, i64 16
  %8 = load i32, ptr %7, align 8, !tbaa !60
  %9 = add i32 %8, 1
  store i32 %9, ptr %7, align 8, !tbaa !60
  %10 = getelementptr inbounds nuw i8, ptr %1, i64 8
  %11 = load i64, ptr %10, align 8, !tbaa !59
  %12 = zext i32 %9 to i64
  %13 = icmp ugt i64 %11, %12
  br i1 %13, label %_ZNK4Luau5Lexer6peekchEv.exit9.lr.ph, label %._ZNK4Luau5Lexer6peekchEv.exit9.thread_crit_edge

._ZNK4Luau5Lexer6peekchEv.exit9.thread_crit_edge: ; preds = %6
  %.phi.trans.insert = getelementptr inbounds nuw i8, ptr %1, i64 20
  %.pre = load i32, ptr %.phi.trans.insert, align 4, !tbaa !66
  br label %_ZNK4Luau5Lexer6peekchEv.exit9.thread

_ZNK4Luau5Lexer6peekchEv.exit9.lr.ph:             ; preds = %6
  %14 = load ptr, ptr %1, align 8, !tbaa !51
  %15 = getelementptr inbounds nuw i8, ptr %1, i64 20
  %16 = getelementptr inbounds nuw i8, ptr %1, i64 24
  %.promoted21 = load i32, ptr %15, align 4
  br label %_ZNK4Luau5Lexer6peekchEv.exit9

_ZNK4Luau5Lexer6peekchEv.exit9:                   ; preds = %_ZNK4Luau5Lexer6peekchEv.exit9.lr.ph, %53
  %17 = phi i32 [ %.promoted21, %_ZNK4Luau5Lexer6peekchEv.exit9.lr.ph ], [ %54, %53 ]
  %18 = phi i64 [ %12, %_ZNK4Luau5Lexer6peekchEv.exit9.lr.ph ], [ %56, %53 ]
  %19 = phi i32 [ %9, %_ZNK4Luau5Lexer6peekchEv.exit9.lr.ph ], [ %55, %53 ]
  %20 = getelementptr inbounds nuw i8, ptr %14, i64 %18
  %21 = load i8, ptr %20, align 1, !tbaa !15
  switch i8 %21, label %._ZN4Luau5Lexer10consumeAnyEv.exit_crit_edge [
    i8 0, label %_ZNK4Luau5Lexer6peekchEv.exit9.thread
    i8 93, label %_ZNK4Luau5Lexer6peekchEv.exit5.i
    i8 10, label %49
  ]

_ZNK4Luau5Lexer6peekchEv.exit5.i:                 ; preds = %_ZNK4Luau5Lexer6peekchEv.exit9
  %22 = add i32 %19, 1
  store i32 %22, ptr %7, align 8, !tbaa !60
  %23 = zext i32 %22 to i64
  %24 = icmp ugt i64 %11, %23
  br i1 %24, label %_ZNK4Luau5Lexer6peekchEv.exit4.i, label %_ZN4Luau5Lexer17skipLongSeparatorEv.exit

_ZNK4Luau5Lexer6peekchEv.exit4.i:                 ; preds = %_ZNK4Luau5Lexer6peekchEv.exit5.i, %30
  %25 = phi i64 [ %33, %30 ], [ %23, %_ZNK4Luau5Lexer6peekchEv.exit5.i ]
  %.09.i = phi i32 [ %32, %30 ], [ 0, %_ZNK4Luau5Lexer6peekchEv.exit5.i ]
  %26 = phi i32 [ %31, %30 ], [ %22, %_ZNK4Luau5Lexer6peekchEv.exit5.i ]
  %27 = getelementptr inbounds nuw i8, ptr %14, i64 %25
  %28 = load i8, ptr %27, align 1, !tbaa !15
  %29 = icmp eq i8 %28, 61
  br i1 %29, label %30, label %_ZN4Luau5Lexer17skipLongSeparatorEv.exit.loopexit

30:                                               ; preds = %_ZNK4Luau5Lexer6peekchEv.exit4.i
  %31 = add i32 %26, 1
  store i32 %31, ptr %7, align 8, !tbaa !60
  %32 = add nuw nsw i32 %.09.i, 1
  %33 = zext i32 %31 to i64
  %34 = icmp ugt i64 %11, %33
  br i1 %34, label %_ZNK4Luau5Lexer6peekchEv.exit4.i, label %_ZN4Luau5Lexer17skipLongSeparatorEv.exit.loopexit, !llvm.loop !75

_ZN4Luau5Lexer17skipLongSeparatorEv.exit.loopexit: ; preds = %30, %_ZNK4Luau5Lexer6peekchEv.exit4.i
  %.ph = phi i32 [ %31, %30 ], [ %26, %_ZNK4Luau5Lexer6peekchEv.exit4.i ]
  %.08.i.ph = phi i32 [ %32, %30 ], [ %.09.i, %_ZNK4Luau5Lexer6peekchEv.exit4.i ]
  %.ph22 = phi i8 [ 0, %30 ], [ %28, %_ZNK4Luau5Lexer6peekchEv.exit4.i ]
  %35 = icmp ne i8 %.ph22, 93
  %36 = sext i1 %35 to i32
  %37 = xor i32 %.08.i.ph, %36
  br label %_ZN4Luau5Lexer17skipLongSeparatorEv.exit

_ZN4Luau5Lexer17skipLongSeparatorEv.exit:         ; preds = %_ZN4Luau5Lexer17skipLongSeparatorEv.exit.loopexit, %_ZNK4Luau5Lexer6peekchEv.exit5.i
  %38 = phi i32 [ %22, %_ZNK4Luau5Lexer6peekchEv.exit5.i ], [ %.ph, %_ZN4Luau5Lexer17skipLongSeparatorEv.exit.loopexit ]
  %39 = phi i32 [ -1, %_ZNK4Luau5Lexer6peekchEv.exit5.i ], [ %37, %_ZN4Luau5Lexer17skipLongSeparatorEv.exit.loopexit ]
  %40 = icmp eq i32 %39, %3
  br i1 %40, label %41, label %53

41:                                               ; preds = %_ZN4Luau5Lexer17skipLongSeparatorEv.exit
  %42 = add i32 %38, 1
  store i32 %42, ptr %7, align 8, !tbaa !60
  %43 = load i32, ptr %16, align 8, !tbaa !67
  %44 = sub i32 %42, %43
  %.sroa.417.0.insert.ext = zext i32 %44 to i64
  %.sroa.417.0.insert.shift = shl nuw i64 %.sroa.417.0.insert.ext, 32
  %.sroa.016.0.insert.ext = zext i32 %17 to i64
  %.sroa.016.0.insert.insert = or disjoint i64 %.sroa.417.0.insert.shift, %.sroa.016.0.insert.ext
  %45 = getelementptr inbounds nuw i8, ptr %14, i64 %12
  %46 = add i32 %9, %3
  %47 = xor i32 %46, -1
  %48 = add i32 %38, %47
  br label %62

._ZN4Luau5Lexer10consumeAnyEv.exit_crit_edge:     ; preds = %_ZNK4Luau5Lexer6peekchEv.exit9
  %.pre23 = add i32 %19, 1
  br label %_ZN4Luau5Lexer10consumeAnyEv.exit

49:                                               ; preds = %_ZNK4Luau5Lexer6peekchEv.exit9
  %50 = add i32 %17, 1
  store i32 %50, ptr %15, align 4, !tbaa !66
  %51 = add i32 %19, 1
  store i32 %51, ptr %16, align 8, !tbaa !67
  br label %_ZN4Luau5Lexer10consumeAnyEv.exit

_ZN4Luau5Lexer10consumeAnyEv.exit:                ; preds = %._ZN4Luau5Lexer10consumeAnyEv.exit_crit_edge, %49
  %.pre-phi = phi i32 [ %.pre23, %._ZN4Luau5Lexer10consumeAnyEv.exit_crit_edge ], [ %51, %49 ]
  %52 = phi i32 [ %17, %._ZN4Luau5Lexer10consumeAnyEv.exit_crit_edge ], [ %50, %49 ]
  store i32 %.pre-phi, ptr %7, align 8, !tbaa !60
  br label %53

53:                                               ; preds = %_ZN4Luau5Lexer17skipLongSeparatorEv.exit, %_ZN4Luau5Lexer10consumeAnyEv.exit
  %54 = phi i32 [ %17, %_ZN4Luau5Lexer17skipLongSeparatorEv.exit ], [ %52, %_ZN4Luau5Lexer10consumeAnyEv.exit ]
  %55 = phi i32 [ %38, %_ZN4Luau5Lexer17skipLongSeparatorEv.exit ], [ %.pre-phi, %_ZN4Luau5Lexer10consumeAnyEv.exit ]
  %56 = zext i32 %55 to i64
  %57 = icmp ugt i64 %11, %56
  br i1 %57, label %_ZNK4Luau5Lexer6peekchEv.exit9, label %_ZNK4Luau5Lexer6peekchEv.exit9.thread, !llvm.loop !79

_ZNK4Luau5Lexer6peekchEv.exit9.thread:            ; preds = %53, %_ZNK4Luau5Lexer6peekchEv.exit9, %._ZNK4Luau5Lexer6peekchEv.exit9.thread_crit_edge
  %58 = phi i32 [ %.pre, %._ZNK4Luau5Lexer6peekchEv.exit9.thread_crit_edge ], [ %54, %53 ], [ %17, %_ZNK4Luau5Lexer6peekchEv.exit9 ]
  %.lcssa = phi i32 [ %9, %._ZNK4Luau5Lexer6peekchEv.exit9.thread_crit_edge ], [ %55, %53 ], [ %19, %_ZNK4Luau5Lexer6peekchEv.exit9 ]
  %59 = getelementptr inbounds nuw i8, ptr %1, i64 24
  %60 = load i32, ptr %59, align 8, !tbaa !67
  %61 = sub i32 %.lcssa, %60
  %.sroa.415.0.insert.ext = zext i32 %61 to i64
  %.sroa.415.0.insert.shift = shl nuw i64 %.sroa.415.0.insert.ext, 32
  %.sroa.014.0.insert.ext = zext i32 %58 to i64
  %.sroa.014.0.insert.insert = or disjoint i64 %.sroa.415.0.insert.shift, %.sroa.014.0.insert.ext
  br label %62

62:                                               ; preds = %_ZNK4Luau5Lexer6peekchEv.exit9.thread, %41
  %.sink33 = phi i32 [ %5, %_ZNK4Luau5Lexer6peekchEv.exit9.thread ], [ %4, %41 ]
  %.sroa.014.0.insert.insert.sink = phi i64 [ %.sroa.014.0.insert.insert, %_ZNK4Luau5Lexer6peekchEv.exit9.thread ], [ %.sroa.016.0.insert.insert, %41 ]
  %.sink29 = phi i32 [ 0, %_ZNK4Luau5Lexer6peekchEv.exit9.thread ], [ %48, %41 ]
  %.sink = phi ptr [ null, %_ZNK4Luau5Lexer6peekchEv.exit9.thread ], [ %45, %41 ]
  %.sink31 = load i64, ptr %2, align 4
  store i32 %.sink33, ptr %0, align 8, !tbaa !8
  %63 = getelementptr inbounds nuw i8, ptr %0, i64 4
  store i64 %.sink31, ptr %63, align 4
  %.sroa.4.0..sroa_idx = getelementptr inbounds nuw i8, ptr %0, i64 12
  store i64 %.sroa.014.0.insert.insert.sink, ptr %.sroa.4.0..sroa_idx, align 4
  %64 = getelementptr inbounds nuw i8, ptr %0, i64 20
  store i32 %.sink29, ptr %64, align 4, !tbaa !14
  %65 = getelementptr inbounds nuw i8, ptr %0, i64 24
  store ptr %.sink, ptr %65, align 8, !tbaa !15
  ret void
}